; Function Attrs: mustprogress uwtable
define void @_ZN3nix12openLockFileERKNSt7__cxx1112basic_stringIcSt11char_traitsIcESaIcEEEb(ptr dead_on_unwind noalias nonnull writable sret(%"class.nix::AutoCloseFD") align 4 %0, ptr noundef nonnull align 8 dereferenceable(32) %1, i1 noundef zeroext %2) local_unnamed_addr #2 personality ptr @__gxx_personality_v0 {
  %4 = alloca %"class.nix::AutoCloseFD", align 4
  tail call void @_ZN3nix11AutoCloseFDC1Ev(ptr noundef nonnull align 4 dereferenceable(4) %0)
  %5 = load ptr, ptr %1, align 8
  %6 = select i1 %2, i32 524354, i32 524290
  %7 = invoke i32 (ptr, i32, ...) @open(ptr noundef %5, i32 noundef %6, i32 noundef 384)
          to label %8 unwind label %22

8:                                                ; preds = %3
  invoke void @_ZN3nix11AutoCloseFDC1Ei(ptr noundef nonnull align 4 dereferenceable(4) %4, i32 noundef %7)
          to label %9 unwind label %22

9:                                                ; preds = %8
  %10 = invoke noundef nonnull align 4 dereferenceable(4) ptr @_ZN3nix11AutoCloseFDaSEOS0_(ptr noundef nonnull align 4 dereferenceable(4) %0, ptr noundef nonnull align 4 dereferenceable(4) %4)
          to label %11 unwind label %24

11:                                               ; preds = %9
  call void @_ZN3nix11AutoCloseFDD1Ev(ptr noundef nonnull align 4 dereferenceable(4) %4) #27
  %12 = invoke noundef zeroext i1 @_ZNK3nix11AutoCloseFDcvbEv(ptr noundef nonnull align 4 dereferenceable(4) %0)
          to label %13 unwind label %22

13:                                               ; preds = %11
  br i1 %12, label %28, label %14

14:                                               ; preds = %13
  br i1 %2, label %18, label %15

15:                                               ; preds = %14
  %16 = tail call ptr @__errno_location() #28
  %17 = load i32, ptr %16, align 4
  %.not = icmp eq i32 %17, 2
  br i1 %.not, label %28, label %18

18:                                               ; preds = %15, %14
  %19 = call ptr @__cxa_allocate_exception(i64 384) #27
  %20 = tail call ptr @__errno_location() #28
  %21 = load i32, ptr %20, align 4
  invoke void @_ZN3nix8SysErrorC2IJA24_cNSt7__cxx1112basic_stringIcSt11char_traitsIcESaIcEEEEEEiDpRKT_(ptr noundef nonnull align 8 dereferenceable(380) %19, i32 noundef %21, ptr noundef nonnull align 1 dereferenceable(24) @.str, ptr noundef nonnull align 8 dereferenceable(32) %1)
          to label %_ZN3nix8SysErrorC2IJA24_cNSt7__cxx1112basic_stringIcSt11char_traitsIcESaIcEEEEEEDpRKT_.exit unwind label %26

_ZN3nix8SysErrorC2IJA24_cNSt7__cxx1112basic_stringIcSt11char_traitsIcESaIcEEEEEEDpRKT_.exit: ; preds = %18
  invoke void @__cxa_throw(ptr nonnull %19, ptr nonnull @_ZTIN3nix8SysErrorE, ptr nonnull @_ZN3nix8SysErrorD2Ev) #29
          to label %30 unwind label %22

22:                                               ; preds = %_ZN3nix8SysErrorC2IJA24_cNSt7__cxx1112basic_stringIcSt11char_traitsIcESaIcEEEEEEDpRKT_.exit, %11, %8, %3
  %23 = landingpad { ptr, i32 }
          cleanup
  br label %29

24:                                               ; preds = %9
  %25 = landingpad { ptr, i32 }
          cleanup
  call void @_ZN3nix11AutoCloseFDD1Ev(ptr noundef nonnull align 4 dereferenceable(4) %4) #27
  br label %29

26:                                               ; preds = %18
  %27 = landingpad { ptr, i32 }
          cleanup
  call void @__cxa_free_exception(ptr %19) #27
  br label %29

28:                                               ; preds = %13, %15
  ret void

29:                                               ; preds = %26, %24, %22
  %.pn = phi { ptr, i32 } [ %23, %22 ], [ %27, %26 ], [ %25, %24 ]
  call void @_ZN3nix11AutoCloseFDD1Ev(ptr noundef nonnull align 4 dereferenceable(4) %0) #27
  resume { ptr, i32 } %.pn

30:                                               ; preds = %_ZN3nix8SysErrorC2IJA24_cNSt7__cxx1112basic_stringIcSt11char_traitsIcESaIcEEEEEEDpRKT_.exit
  unreachable
}